; Function Attrs: null_pointer_is_valid sspstrong uwtable
define internal void @mcaststream_draw(ptr noundef %0) #0 {
  %.not = icmp eq ptr %0, null
  br i1 %.not, label %6, label %2

2:                                                ; preds = %1
  %3 = getelementptr inbounds nuw i8, ptr %0, i64 16
  %4 = load ptr, ptr %3, align 8
  %.not6 = icmp eq ptr %4, null
  br i1 %.not6, label %6, label %5

5:                                                ; preds = %2
  tail call void %4(ptr noundef nonnull %0)
  br label %6

6:                                                ; preds = %5, %2, %1
  ret void
}